; ModuleID = '5/823.c'
source_filename = "5/823.c"
target datalayout = "e-m:e-p270:32:32-p271:32:32-p272:64:64-i64:64-f80:128-n8:16:32:64-S128"
target triple = "x86_64-pc-linux-gnu"

@.str = private unnamed_addr constant [4 x i8] c"%f\0A\00", align 1
@.str.1 = private unnamed_addr constant [6 x i8] c"%s\0A%s\00", align 1
@.str.2 = private unnamed_addr constant [6 x i8] c"error\00", align 1
@.str.3 = private unnamed_addr constant [4 x i8] c"yes\00", align 1
@.str.4 = private unnamed_addr constant [3 x i8] c"no\00", align 1

; Function Attrs: noinline nounwind uwtable
define dso_local i32 @main() #0 {
  %1 = alloca i32, align 4
  %2 = alloca i32, align 4
  %3 = alloca i32, align 4
  %4 = alloca i32, align 4
  %5 = alloca i32, align 4
  %6 = alloca i32, align 4
  %7 = alloca i32, align 4
  %8 = alloca i32, align 4
  %9 = alloca i32, align 4
  %10 = alloca i32, align 4
  %11 = alloca float, align 4
  %12 = alloca float, align 4
  %13 = alloca [500 x i8], align 16
  %14 = alloca [500 x i8], align 16
  %15 = alloca i32, align 4
  store i32 0, i32* %1, align 4
  store i32 0, i32* %4, align 4
  store i32 0, i32* %7, align 4
  store i32 0, i32* %8, align 4
  %16 = call i32 (i8*, ...) @__isoc99_scanf(i8* getelementptr inbounds ([4 x i8], [4 x i8]* @.str, i64 0, i64 0), float* %12)
  %17 = getelementptr inbounds [500 x i8], [500 x i8]* %13, i64 0, i64 0
  %18 = getelementptr inbounds [500 x i8], [500 x i8]* %14, i64 0, i64 0
  %19 = call i32 (i8*, ...) @__isoc99_scanf(i8* getelementptr inbounds ([6 x i8], [6 x i8]* @.str.1, i64 0, i64 0), i8* %17, i8* %18)
  %20 = getelementptr inbounds [500 x i8], [500 x i8]* %13, i64 0, i64 0
  %21 = call i64 @strlen(i8* %20) #3
  %22 = getelementptr inbounds [500 x i8], [500 x i8]* %14, i64 0, i64 0
  %23 = call i64 @strlen(i8* %22) #3
  %24 = icmp ne i64 %21, %23
  br i1 %24, label %25, label %27

25:                                               ; preds = %0
  %26 = call i32 (i8*, ...) @printf(i8* getelementptr inbounds ([6 x i8], [6 x i8]* @.str.2, i64 0, i64 0))
  br label %27

27:                                               ; preds = %25, %0
  %28 = getelementptr inbounds [500 x i8], [500 x i8]* %13, i64 0, i64 0
  %29 = call i64 @strlen(i8* %28) #3
  %30 = getelementptr inbounds [500 x i8], [500 x i8]* %14, i64 0, i64 0
  %31 = call i64 @strlen(i8* %30) #3
  %32 = icmp eq i64 %29, %31
  br i1 %32, label %33, label %177

33:                                               ; preds = %27
  store i32 0, i32* %3, align 4
  br label %34

34:                                               ; preds = %73, %33
  %35 = load i32, i32* %3, align 4
  %36 = sext i32 %35 to i64
  %37 = getelementptr inbounds [500 x i8], [500 x i8]* %13, i64 0, i64 %36
  %38 = load i8, i8* %37, align 1
  %39 = sext i8 %38 to i32
  %40 = icmp ne i32 %39, 0
  br i1 %40, label %41, label %76

41:                                               ; preds = %34
  %42 = load i32, i32* %3, align 4
  %43 = sext i32 %42 to i64
  %44 = getelementptr inbounds [500 x i8], [500 x i8]* %13, i64 0, i64 %43
  %45 = load i8, i8* %44, align 1
  %46 = sext i8 %45 to i32
  %47 = icmp ne i32 %46, 65
  br i1 %47, label %48, label %72

48:                                               ; preds = %41
  %49 = load i32, i32* %3, align 4
  %50 = sext i32 %49 to i64
  %51 = getelementptr inbounds [500 x i8], [500 x i8]* %13, i64 0, i64 %50
  %52 = load i8, i8* %51, align 1
  %53 = sext i8 %52 to i32
  %54 = icmp ne i32 %53, 84
  br i1 %54, label %55, label %72

55:                                               ; preds = %48
  %56 = load i32, i32* %3, align 4
  %57 = sext i32 %56 to i64
  %58 = getelementptr inbounds [500 x i8], [500 x i8]* %13, i64 0, i64 %57
  %59 = load i8, i8* %58, align 1
  %60 = sext i8 %59 to i32
  %61 = icmp ne i32 %60, 71
  br i1 %61, label %62, label %72

62:                                               ; preds = %55
  %63 = load i32, i32* %3, align 4
  %64 = sext i32 %63 to i64
  %65 = getelementptr inbounds [500 x i8], [500 x i8]* %13, i64 0, i64 %64
  %66 = load i8, i8* %65, align 1
  %67 = sext i8 %66 to i32
  %68 = icmp ne i32 %67, 67
  br i1 %68, label %69, label %72

69:                                               ; preds = %62
  %70 = load i32, i32* %7, align 4
  %71 = add nsw i32 %70, 1
  store i32 %71, i32* %7, align 4
  br label %72

72:                                               ; preds = %69, %62, %55, %48, %41
  br label %73

73:                                               ; preds = %72
  %74 = load i32, i32* %3, align 4
  %75 = add nsw i32 %74, 1
  store i32 %75, i32* %3, align 4
  br label %34

76:                                               ; preds = %34
  store i32 0, i32* %2, align 4
  br label %77

77:                                               ; preds = %116, %76
  %78 = load i32, i32* %2, align 4
  %79 = sext i32 %78 to i64
  %80 = getelementptr inbounds [500 x i8], [500 x i8]* %14, i64 0, i64 %79
  %81 = load i8, i8* %80, align 1
  %82 = sext i8 %81 to i32
  %83 = icmp ne i32 %82, 0
  br i1 %83, label %84, label %119

84:                                               ; preds = %77
  %85 = load i32, i32* %2, align 4
  %86 = sext i32 %85 to i64
  %87 = getelementptr inbounds [500 x i8], [500 x i8]* %14, i64 0, i64 %86
  %88 = load i8, i8* %87, align 1
  %89 = sext i8 %88 to i32
  %90 = icmp ne i32 %89, 65
  br i1 %90, label %91, label %115

91:                                               ; preds = %84
  %92 = load i32, i32* %2, align 4
  %93 = sext i32 %92 to i64
  %94 = getelementptr inbounds [500 x i8], [500 x i8]* %14, i64 0, i64 %93
  %95 = load i8, i8* %94, align 1
  %96 = sext i8 %95 to i32
  %97 = icmp ne i32 %96, 84
  br i1 %97, label %98, label %115

98:                                               ; preds = %91
  %99 = load i32, i32* %2, align 4
  %100 = sext i32 %99 to i64
  %101 = getelementptr inbounds [500 x i8], [500 x i8]* %14, i64 0, i64 %100
  %102 = load i8, i8* %101, align 1
  %103 = sext i8 %102 to i32
  %104 = icmp ne i32 %103, 71
  br i1 %104, label %105, label %115

105:                                              ; preds = %98
  %106 = load i32, i32* %2, align 4
  %107 = sext i32 %106 to i64
  %108 = getelementptr inbounds [500 x i8], [500 x i8]* %14, i64 0, i64 %107
  %109 = load i8, i8* %108, align 1
  %110 = sext i8 %109 to i32
  %111 = icmp ne i32 %110, 67
  br i1 %111, label %112, label %115

112:                                              ; preds = %105
  %113 = load i32, i32* %8, align 4
  %114 = add nsw i32 %113, 1
  store i32 %114, i32* %8, align 4
  br label %115

115:                                              ; preds = %112, %105, %98, %91, %84
  br label %116

116:                                              ; preds = %115
  %117 = load i32, i32* %2, align 4
  %118 = add nsw i32 %117, 1
  store i32 %118, i32* %2, align 4
  br label %77

119:                                              ; preds = %77
  %120 = getelementptr inbounds [500 x i8], [500 x i8]* %13, i64 0, i64 0
  %121 = call i64 @strlen(i8* %120) #3
  %122 = trunc i64 %121 to i32
  store i32 %122, i32* %9, align 4
  store i32 0, i32* %15, align 4
  br label %123

123:                                              ; preds = %143, %119
  %124 = load i32, i32* %15, align 4
  %125 = load i32, i32* %9, align 4
  %126 = icmp slt i32 %124, %125
  br i1 %126, label %127, label %146

127:                                              ; preds = %123
  %128 = load i32, i32* %15, align 4
  %129 = sext i32 %128 to i64
  %130 = getelementptr inbounds [500 x i8], [500 x i8]* %13, i64 0, i64 %129
  %131 = load i8, i8* %130, align 1
  %132 = sext i8 %131 to i32
  %133 = load i32, i32* %15, align 4
  %134 = sext i32 %133 to i64
  %135 = getelementptr inbounds [500 x i8], [500 x i8]* %14, i64 0, i64 %134
  %136 = load i8, i8* %135, align 1
  %137 = sext i8 %136 to i32
  %138 = icmp eq i32 %132, %137
  br i1 %138, label %139, label %142

139:                                              ; preds = %127
  %140 = load i32, i32* %4, align 4
  %141 = add nsw i32 %140, 1
  store i32 %141, i32* %4, align 4
  br label %142

142:                                              ; preds = %139, %127
  br label %143

143:                                              ; preds = %142
  %144 = load i32, i32* %15, align 4
  %145 = add nsw i32 %144, 1
  store i32 %145, i32* %15, align 4
  br label %123

146:                                              ; preds = %123
  %147 = getelementptr inbounds [500 x i8], [500 x i8]* %13, i64 0, i64 0
  %148 = call i64 @strlen(i8* %147) #3
  %149 = trunc i64 %148 to i32
  store i32 %149, i32* %5, align 4
  %150 = load i32, i32* %4, align 4
  store i32 %150, i32* %6, align 4
  %151 = load i32, i32* %6, align 4
  %152 = sitofp i32 %151 to float
  %153 = load i32, i32* %5, align 4
  %154 = sitofp i32 %153 to float
  %155 = fdiv float %152, %154
  store float %155, float* %11, align 4
  %156 = load i32, i32* %7, align 4
  %157 = load i32, i32* %8, align 4
  %158 = add nsw i32 %156, %157
  store i32 %158, i32* %10, align 4
  %159 = load i32, i32* %10, align 4
  %160 = icmp ne i32 %159, 0
  br i1 %160, label %161, label %163

161:                                              ; preds = %146
  %162 = call i32 (i8*, ...) @printf(i8* getelementptr inbounds ([6 x i8], [6 x i8]* @.str.2, i64 0, i64 0))
  br label %176

163:                                              ; preds = %146
  %164 = load float, float* %11, align 4
  %165 = load float, float* %12, align 4
  %166 = fcmp oge float %164, %165
  br i1 %166, label %167, label %169

167:                                              ; preds = %163
  %168 = call i32 (i8*, ...) @printf(i8* getelementptr inbounds ([4 x i8], [4 x i8]* @.str.3, i64 0, i64 0))
  br label %169

169:                                              ; preds = %167, %163
  %170 = load float, float* %11, align 4
  %171 = load float, float* %12, align 4
  %172 = fcmp olt float %170, %171
  br i1 %172, label %173, label %175

173:                                              ; preds = %169
  %174 = call i32 (i8*, ...) @printf(i8* getelementptr inbounds ([3 x i8], [3 x i8]* @.str.4, i64 0, i64 0))
  br label %175

175:                                              ; preds = %173, %169
  br label %176

176:                                              ; preds = %175, %161
  br label %177

177:                                              ; preds = %176, %27
  ret i32 0
}

declare dso_local i32 @__isoc99_scanf(i8*, ...) #1

; Function Attrs: nounwind readonly
declare dso_local i64 @strlen(i8*) #2

declare dso_local i32 @printf(i8*, ...) #1


!llvm.module.flags = !{!0}
!llvm.ident = !{!1}

!0 = !{i32 1, !"wchar_size", i32 4}
!1 = !{!"clang version 10.0.0-4ubuntu1 "}
